; ModuleID = '35/2508.c'
source_filename = "35/2508.c"
target datalayout = "e-m:e-p270:32:32-p271:32:32-p272:64:64-i64:64-f80:128-n8:16:32:64-S128"
target triple = "x86_64-pc-linux-gnu"

@.str = private unnamed_addr constant [6 x i8] c"%d,%d\00", align 1
@.str.1 = private unnamed_addr constant [3 x i8] c"%d\00", align 1
@.str.2 = private unnamed_addr constant [6 x i8] c"%d+%d\00", align 1
@.str.3 = private unnamed_addr constant [3 x i8] c"No\00", align 1

; Function Attrs: noinline nounwind uwtable
define dso_local i32 @main() #0 {
  %1 = alloca i32, align 4
  %2 = alloca i32, align 4
  %3 = alloca i32, align 4
  %4 = alloca [10 x [10 x i32]], align 16
  %5 = alloca i32, align 4
  %6 = alloca i32, align 4
  %7 = alloca [10 x i32], align 16
  %8 = alloca [10 x i32], align 16
  %9 = alloca i32, align 4
  %10 = alloca i32, align 4
  %11 = alloca [10 x i32], align 16
  %12 = alloca i32, align 4
  %13 = alloca i32, align 4
  %14 = alloca i32, align 4
  %15 = alloca i32, align 4
  store i32 0, i32* %1, align 4
  %16 = call i32 (i8*, ...) @__isoc99_scanf(i8* getelementptr inbounds ([6 x i8], [6 x i8]* @.str, i64 0, i64 0), i32* %2, i32* %3)
  store i32 0, i32* %5, align 4
  br label %17

17:                                               ; preds = %38, %0
  %18 = load i32, i32* %5, align 4
  %19 = load i32, i32* %2, align 4
  %20 = icmp slt i32 %18, %19
  br i1 %20, label %21, label %41

21:                                               ; preds = %17
  store i32 0, i32* %6, align 4
  br label %22

22:                                               ; preds = %34, %21
  %23 = load i32, i32* %6, align 4
  %24 = load i32, i32* %3, align 4
  %25 = icmp slt i32 %23, %24
  br i1 %25, label %26, label %37

26:                                               ; preds = %22
  %27 = load i32, i32* %5, align 4
  %28 = sext i32 %27 to i64
  %29 = getelementptr inbounds [10 x [10 x i32]], [10 x [10 x i32]]* %4, i64 0, i64 %28
  %30 = load i32, i32* %6, align 4
  %31 = sext i32 %30 to i64
  %32 = getelementptr inbounds [10 x i32], [10 x i32]* %29, i64 0, i64 %31
  %33 = call i32 (i8*, ...) @__isoc99_scanf(i8* getelementptr inbounds ([3 x i8], [3 x i8]* @.str.1, i64 0, i64 0), i32* %32)
  br label %34

34:                                               ; preds = %26
  %35 = load i32, i32* %6, align 4
  %36 = add nsw i32 %35, 1
  store i32 %36, i32* %6, align 4
  br label %22

37:                                               ; preds = %22
  br label %38

38:                                               ; preds = %37
  %39 = load i32, i32* %5, align 4
  %40 = add nsw i32 %39, 1
  store i32 %40, i32* %5, align 4
  br label %17

41:                                               ; preds = %17
  store i32 0, i32* %9, align 4
  br label %42

42:                                               ; preds = %95, %41
  %43 = load i32, i32* %9, align 4
  %44 = load i32, i32* %2, align 4
  %45 = icmp slt i32 %43, %44
  br i1 %45, label %46, label %98

46:                                               ; preds = %42
  %47 = load i32, i32* %9, align 4
  %48 = sext i32 %47 to i64
  %49 = getelementptr inbounds [10 x [10 x i32]], [10 x [10 x i32]]* %4, i64 0, i64 %48
  %50 = getelementptr inbounds [10 x i32], [10 x i32]* %49, i64 0, i64 0
  %51 = load i32, i32* %50, align 8
  %52 = load i32, i32* %9, align 4
  %53 = sext i32 %52 to i64
  %54 = getelementptr inbounds [10 x i32], [10 x i32]* %7, i64 0, i64 %53
  store i32 %51, i32* %54, align 4
  %55 = load i32, i32* %9, align 4
  %56 = sext i32 %55 to i64
  %57 = getelementptr inbounds [10 x i32], [10 x i32]* %8, i64 0, i64 %56
  store i32 0, i32* %57, align 4
  store i32 1, i32* %10, align 4
  br label %58

58:                                               ; preds = %91, %46
  %59 = load i32, i32* %10, align 4
  %60 = load i32, i32* %3, align 4
  %61 = icmp slt i32 %59, %60
  br i1 %61, label %62, label %94

62:                                               ; preds = %58
  %63 = load i32, i32* %9, align 4
  %64 = sext i32 %63 to i64
  %65 = getelementptr inbounds [10 x [10 x i32]], [10 x [10 x i32]]* %4, i64 0, i64 %64
  %66 = load i32, i32* %10, align 4
  %67 = sext i32 %66 to i64
  %68 = getelementptr inbounds [10 x i32], [10 x i32]* %65, i64 0, i64 %67
  %69 = load i32, i32* %68, align 4
  %70 = load i32, i32* %9, align 4
  %71 = sext i32 %70 to i64
  %72 = getelementptr inbounds [10 x i32], [10 x i32]* %7, i64 0, i64 %71
  %73 = load i32, i32* %72, align 4
  %74 = icmp sgt i32 %69, %73
  br i1 %74, label %75, label %90

75:                                               ; preds = %62
  %76 = load i32, i32* %9, align 4
  %77 = sext i32 %76 to i64
  %78 = getelementptr inbounds [10 x [10 x i32]], [10 x [10 x i32]]* %4, i64 0, i64 %77
  %79 = load i32, i32* %10, align 4
  %80 = sext i32 %79 to i64
  %81 = getelementptr inbounds [10 x i32], [10 x i32]* %78, i64 0, i64 %80
  %82 = load i32, i32* %81, align 4
  %83 = load i32, i32* %9, align 4
  %84 = sext i32 %83 to i64
  %85 = getelementptr inbounds [10 x i32], [10 x i32]* %7, i64 0, i64 %84
  store i32 %82, i32* %85, align 4
  %86 = load i32, i32* %10, align 4
  %87 = load i32, i32* %9, align 4
  %88 = sext i32 %87 to i64
  %89 = getelementptr inbounds [10 x i32], [10 x i32]* %8, i64 0, i64 %88
  store i32 %86, i32* %89, align 4
  br label %90

90:                                               ; preds = %75, %62
  br label %91

91:                                               ; preds = %90
  %92 = load i32, i32* %10, align 4
  %93 = add nsw i32 %92, 1
  store i32 %93, i32* %10, align 4
  br label %58

94:                                               ; preds = %58
  br label %95

95:                                               ; preds = %94
  %96 = load i32, i32* %9, align 4
  %97 = add nsw i32 %96, 1
  store i32 %97, i32* %9, align 4
  br label %42

98:                                               ; preds = %42
  store i32 0, i32* %12, align 4
  store i32 0, i32* %13, align 4
  br label %99

99:                                               ; preds = %107, %98
  %100 = load i32, i32* %13, align 4
  %101 = load i32, i32* %2, align 4
  %102 = icmp slt i32 %100, %101
  br i1 %102, label %103, label %110

103:                                              ; preds = %99
  %104 = load i32, i32* %13, align 4
  %105 = sext i32 %104 to i64
  %106 = getelementptr inbounds [10 x i32], [10 x i32]* %11, i64 0, i64 %105
  store i32 0, i32* %106, align 4
  br label %107

107:                                              ; preds = %103
  %108 = load i32, i32* %13, align 4
  %109 = add nsw i32 %108, 1
  store i32 %109, i32* %13, align 4
  br label %99

110:                                              ; preds = %99
  store i32 0, i32* %14, align 4
  br label %111

111:                                              ; preds = %163, %110
  %112 = load i32, i32* %14, align 4
  %113 = load i32, i32* %2, align 4
  %114 = icmp slt i32 %112, %113
  br i1 %114, label %115, label %166

115:                                              ; preds = %111
  store i32 0, i32* %15, align 4
  br label %116

116:                                              ; preds = %143, %115
  %117 = load i32, i32* %15, align 4
  %118 = load i32, i32* %2, align 4
  %119 = icmp slt i32 %117, %118
  br i1 %119, label %120, label %146

120:                                              ; preds = %116
  %121 = load i32, i32* %14, align 4
  %122 = sext i32 %121 to i64
  %123 = getelementptr inbounds [10 x i32], [10 x i32]* %7, i64 0, i64 %122
  %124 = load i32, i32* %123, align 4
  %125 = load i32, i32* %15, align 4
  %126 = sext i32 %125 to i64
  %127 = getelementptr inbounds [10 x [10 x i32]], [10 x [10 x i32]]* %4, i64 0, i64 %126
  %128 = load i32, i32* %14, align 4
  %129 = sext i32 %128 to i64
  %130 = getelementptr inbounds [10 x i32], [10 x i32]* %8, i64 0, i64 %129
  %131 = load i32, i32* %130, align 4
  %132 = sext i32 %131 to i64
  %133 = getelementptr inbounds [10 x i32], [10 x i32]* %127, i64 0, i64 %132
  %134 = load i32, i32* %133, align 4
  %135 = icmp sle i32 %124, %134
  br i1 %135, label %136, label %142

136:                                              ; preds = %120
  %137 = load i32, i32* %14, align 4
  %138 = sext i32 %137 to i64
  %139 = getelementptr inbounds [10 x i32], [10 x i32]* %11, i64 0, i64 %138
  %140 = load i32, i32* %139, align 4
  %141 = add nsw i32 %140, 1
  store i32 %141, i32* %139, align 4
  br label %142

142:                                              ; preds = %136, %120
  br label %143

143:                                              ; preds = %142
  %144 = load i32, i32* %15, align 4
  %145 = add nsw i32 %144, 1
  store i32 %145, i32* %15, align 4
  br label %116

146:                                              ; preds = %116
  %147 = load i32, i32* %14, align 4
  %148 = sext i32 %147 to i64
  %149 = getelementptr inbounds [10 x i32], [10 x i32]* %11, i64 0, i64 %148
  %150 = load i32, i32* %149, align 4
  %151 = load i32, i32* %2, align 4
  %152 = icmp eq i32 %150, %151
  br i1 %152, label %153, label %162

153:                                              ; preds = %146
  %154 = load i32, i32* %14, align 4
  %155 = load i32, i32* %14, align 4
  %156 = sext i32 %155 to i64
  %157 = getelementptr inbounds [10 x i32], [10 x i32]* %8, i64 0, i64 %156
  %158 = load i32, i32* %157, align 4
  %159 = call i32 (i8*, ...) @printf(i8* getelementptr inbounds ([6 x i8], [6 x i8]* @.str.2, i64 0, i64 0), i32 %154, i32 %158)
  %160 = load i32, i32* %12, align 4
  %161 = add nsw i32 %160, 1
  store i32 %161, i32* %12, align 4
  br label %162

162:                                              ; preds = %153, %146
  br label %163

163:                                              ; preds = %162
  %164 = load i32, i32* %14, align 4
  %165 = add nsw i32 %164, 1
  store i32 %165, i32* %14, align 4
  br label %111

166:                                              ; preds = %111
  %167 = load i32, i32* %12, align 4
  %168 = icmp eq i32 %167, 0
  br i1 %168, label %169, label %171

169:                                              ; preds = %166
  %170 = call i32 (i8*, ...) @printf(i8* getelementptr inbounds ([3 x i8], [3 x i8]* @.str.3, i64 0, i64 0))
  br label %171

171:                                              ; preds = %169, %166
  ret i32 0
}

declare dso_local i32 @__isoc99_scanf(i8*, ...) #1

declare dso_local i32 @printf(i8*, ...) #1


!llvm.module.flags = !{!0}
!llvm.ident = !{!1}

!0 = !{i32 1, !"wchar_size", i32 4}
!1 = !{!"clang version 10.0.0-4ubuntu1 "}
